
kernal.elf:     file format elf32-littlearm


Disassembly of section .text:

00008000 <_start>:
    8000:	e3a0d902 	mov	sp, #32768	; 0x8000
    8004:	eb000004 	bl	801c <os_start>

00008008 <memPut32>:
    8008:	e5801000 	str	r1, [r0]
    800c:	e12fff1e 	bx	lr

00008010 <memGet32>:
    8010:	e5900000 	ldr	r0, [r0]
    8014:	e12fff1e 	bx	lr

00008018 <miniWait>:
    8018:	e12fff1e 	bx	lr

0000801c <os_start>:
    801c:	e92d4010 	push	{r4, lr}
    8020:	e59f403c 	ldr	r4, [pc, #60]	; 8064 <os_start+0x48>
    8024:	e3a03018 	mov	r3, #24
    8028:	e1a00003 	mov	r0, r3
    802c:	e5843008 	str	r3, [r4, #8]
    8030:	e3a03019 	mov	r3, #25
    8034:	e584300c 	str	r3, [r4, #12]
    8038:	e3a03008 	mov	r3, #8
    803c:	e3a01004 	mov	r1, #4
    8040:	e3a02009 	mov	r2, #9
    8044:	e5843010 	str	r3, [r4, #16]
    8048:	e3a03007 	mov	r3, #7
    804c:	e8840006 	stm	r4, {r1, r2}
    8050:	e5843014 	str	r3, [r4, #20]
    8054:	eb000011 	bl	80a0 <gpio_setOutput>
    8058:	e5940008 	ldr	r0, [r4, #8]
    805c:	eb000037 	bl	8140 <gpio_outputSet>
    8060:	eafffffe 	b	8060 <os_start+0x44>
    8064:	000084d4 	ldrdeq	r8, [r0], -r4

00008068 <timer_sleep>:
    8068:	e92d4038 	push	{r3, r4, r5, lr}
    806c:	e59f5028 	ldr	r5, [pc, #40]	; 809c <timer_sleep+0x34>
    8070:	e5953004 	ldr	r3, [r5, #4]
    8074:	e0804003 	add	r4, r0, r3
    8078:	e1530004 	cmp	r3, r4
    807c:	2a000004 	bcs	8094 <timer_sleep+0x2c>
    8080:	e3a00000 	mov	r0, #0
    8084:	ebffffe3 	bl	8018 <miniWait>
    8088:	e5953004 	ldr	r3, [r5, #4]
    808c:	e1540003 	cmp	r4, r3
    8090:	8afffffa 	bhi	8080 <timer_sleep+0x18>
    8094:	e8bd4038 	pop	{r3, r4, r5, lr}
    8098:	e12fff1e 	bx	lr
    809c:	20003000 	andcs	r3, r0, r0

000080a0 <gpio_setOutput>:
    80a0:	e3500035 	cmp	r0, #53	; 0x35
    80a4:	812fff1e 	bxhi	lr
    80a8:	e3500009 	cmp	r0, #9
    80ac:	959f3070 	ldrls	r3, [pc, #112]	; 8124 <gpio_setOutput+0x84>
    80b0:	8a00000d 	bhi	80ec <gpio_setOutput+0x4c>
    80b4:	e59f206c 	ldr	r2, [pc, #108]	; 8128 <gpio_setOutput+0x88>
    80b8:	e0821290 	umull	r1, r2, r0, r2
    80bc:	e1a021a2 	lsr	r2, r2, #3
    80c0:	e0822102 	add	r2, r2, r2, lsl #2
    80c4:	e5931000 	ldr	r1, [r3]
    80c8:	e0400082 	sub	r0, r0, r2, lsl #1
    80cc:	e0800080 	add	r0, r0, r0, lsl #1
    80d0:	e3a02007 	mov	r2, #7
    80d4:	e1812012 	orr	r2, r1, r2, lsl r0
    80d8:	e2600020 	rsb	r0, r0, #32
    80dc:	e3e01006 	mvn	r1, #6
    80e0:	e0020071 	and	r0, r2, r1, ror r0
    80e4:	e5830000 	str	r0, [r3]
    80e8:	e12fff1e 	bx	lr
    80ec:	e3500013 	cmp	r0, #19
    80f0:	959f3034 	ldrls	r3, [pc, #52]	; 812c <gpio_setOutput+0x8c>
    80f4:	9affffee 	bls	80b4 <gpio_setOutput+0x14>
    80f8:	e350001d 	cmp	r0, #29
    80fc:	959f302c 	ldrls	r3, [pc, #44]	; 8130 <gpio_setOutput+0x90>
    8100:	9affffeb 	bls	80b4 <gpio_setOutput+0x14>
    8104:	e3500027 	cmp	r0, #39	; 0x27
    8108:	959f3024 	ldrls	r3, [pc, #36]	; 8134 <gpio_setOutput+0x94>
    810c:	9affffe8 	bls	80b4 <gpio_setOutput+0x14>
    8110:	e59f2020 	ldr	r2, [pc, #32]	; 8138 <gpio_setOutput+0x98>
    8114:	e3500031 	cmp	r0, #49	; 0x31
    8118:	e59f301c 	ldr	r3, [pc, #28]	; 813c <gpio_setOutput+0x9c>
    811c:	91a03002 	movls	r3, r2
    8120:	eaffffe3 	b	80b4 <gpio_setOutput+0x14>
    8124:	20200000 	eorcs	r0, r0, r0
    8128:	cccccccd 	stclgt	12, cr12, [ip], {205}	; 0xcd
    812c:	20200004 	eorcs	r0, r0, r4
    8130:	20200008 	eorcs	r0, r0, r8
    8134:	2020000c 	eorcs	r0, r0, ip
    8138:	20200010 	eorcs	r0, r0, r0, lsl r0
    813c:	20200014 	eorcs	r0, r0, r4, lsl r0

00008140 <gpio_outputSet>:
    8140:	e3500035 	cmp	r0, #53	; 0x35
    8144:	812fff1e 	bxhi	lr
    8148:	e350001f 	cmp	r0, #31
    814c:	859f3018 	ldrhi	r3, [pc, #24]	; 816c <gpio_outputSet+0x2c>
    8150:	959f3018 	ldrls	r3, [pc, #24]	; 8170 <gpio_outputSet+0x30>
    8154:	e5932000 	ldr	r2, [r3]
    8158:	82400020 	subhi	r0, r0, #32
    815c:	e3a01001 	mov	r1, #1
    8160:	e1820011 	orr	r0, r2, r1, lsl r0
    8164:	e5830000 	str	r0, [r3]
    8168:	e12fff1e 	bx	lr
    816c:	20200020 	eorcs	r0, r0, r0, lsr #32
    8170:	2020001c 	eorcs	r0, r0, ip, lsl r0

00008174 <gpio_outputClr>:
    8174:	e3500035 	cmp	r0, #53	; 0x35
    8178:	812fff1e 	bxhi	lr
    817c:	e350001f 	cmp	r0, #31
    8180:	859f3018 	ldrhi	r3, [pc, #24]	; 81a0 <gpio_outputClr+0x2c>
    8184:	959f3018 	ldrls	r3, [pc, #24]	; 81a4 <gpio_outputClr+0x30>
    8188:	e5932000 	ldr	r2, [r3]
    818c:	82400020 	subhi	r0, r0, #32
    8190:	e3a01001 	mov	r1, #1
    8194:	e1820011 	orr	r0, r2, r1, lsl r0
    8198:	e5830000 	str	r0, [r3]
    819c:	e12fff1e 	bx	lr
    81a0:	2020002c 	eorcs	r0, r0, ip, lsr #32
    81a4:	20200028 	eorcs	r0, r0, r8, lsr #32

000081a8 <gpio_setInput>:
    81a8:	e3500035 	cmp	r0, #53	; 0x35
    81ac:	812fff1e 	bxhi	lr
    81b0:	e3500009 	cmp	r0, #9
    81b4:	959f3070 	ldrls	r3, [pc, #112]	; 822c <gpio_setInput+0x84>
    81b8:	8a00000d 	bhi	81f4 <gpio_setInput+0x4c>
    81bc:	e59f206c 	ldr	r2, [pc, #108]	; 8230 <gpio_setInput+0x88>
    81c0:	e0821290 	umull	r1, r2, r0, r2
    81c4:	e1a021a2 	lsr	r2, r2, #3
    81c8:	e0822102 	add	r2, r2, r2, lsl #2
    81cc:	e5931000 	ldr	r1, [r3]
    81d0:	e0400082 	sub	r0, r0, r2, lsl #1
    81d4:	e0800080 	add	r0, r0, r0, lsl #1
    81d8:	e3a02007 	mov	r2, #7
    81dc:	e1812012 	orr	r2, r1, r2, lsl r0
    81e0:	e2600020 	rsb	r0, r0, #32
    81e4:	e3e01007 	mvn	r1, #7
    81e8:	e0020071 	and	r0, r2, r1, ror r0
    81ec:	e5830000 	str	r0, [r3]
    81f0:	e12fff1e 	bx	lr
    81f4:	e3500013 	cmp	r0, #19
    81f8:	959f3034 	ldrls	r3, [pc, #52]	; 8234 <gpio_setInput+0x8c>
    81fc:	9affffee 	bls	81bc <gpio_setInput+0x14>
    8200:	e350001d 	cmp	r0, #29
    8204:	959f302c 	ldrls	r3, [pc, #44]	; 8238 <gpio_setInput+0x90>
    8208:	9affffeb 	bls	81bc <gpio_setInput+0x14>
    820c:	e3500027 	cmp	r0, #39	; 0x27
    8210:	959f3024 	ldrls	r3, [pc, #36]	; 823c <gpio_setInput+0x94>
    8214:	9affffe8 	bls	81bc <gpio_setInput+0x14>
    8218:	e59f2020 	ldr	r2, [pc, #32]	; 8240 <gpio_setInput+0x98>
    821c:	e3500031 	cmp	r0, #49	; 0x31
    8220:	e59f301c 	ldr	r3, [pc, #28]	; 8244 <gpio_setInput+0x9c>
    8224:	91a03002 	movls	r3, r2
    8228:	eaffffe3 	b	81bc <gpio_setInput+0x14>
    822c:	20200000 	eorcs	r0, r0, r0
    8230:	cccccccd 	stclgt	12, cr12, [ip], {205}	; 0xcd
    8234:	20200004 	eorcs	r0, r0, r4
    8238:	20200008 	eorcs	r0, r0, r8
    823c:	2020000c 	eorcs	r0, r0, ip
    8240:	20200010 	eorcs	r0, r0, r0, lsl r0
    8244:	20200014 	eorcs	r0, r0, r4, lsl r0

00008248 <gpio_inputGet>:
    8248:	e3500035 	cmp	r0, #53	; 0x35
    824c:	8a000006 	bhi	826c <gpio_inputGet+0x24>
    8250:	e59f3018 	ldr	r3, [pc, #24]	; 8270 <gpio_inputGet+0x28>
    8254:	e59f2018 	ldr	r2, [pc, #24]	; 8274 <gpio_inputGet+0x2c>
    8258:	e350001f 	cmp	r0, #31
    825c:	81a00002 	movhi	r0, r2
    8260:	91a00003 	movls	r0, r3
    8264:	e5900000 	ldr	r0, [r0]
    8268:	e12fff1e 	bx	lr
    826c:	e12fff1e 	bx	lr
    8270:	20200034 	eorcs	r0, r0, r4, lsr r0
    8274:	20200028 	eorcs	r0, r0, r8, lsr #32

00008278 <lcd_cmd>:
    8278:	e92d41f0 	push	{r4, r5, r6, r7, r8, lr}
    827c:	e1a04002 	mov	r4, r2
    8280:	e1a05000 	mov	r5, r0
    8284:	e59f0110 	ldr	r0, [pc, #272]	; 839c <lcd_cmd+0x124>
    8288:	e1a08001 	mov	r8, r1
    828c:	ebffff75 	bl	8068 <timer_sleep>
    8290:	e3540000 	cmp	r4, #0
    8294:	e5950000 	ldr	r0, [r5]
    8298:	0a00003d 	beq	8394 <lcd_cmd+0x11c>
    829c:	ebffffa7 	bl	8140 <gpio_outputSet>
    82a0:	e5950008 	ldr	r0, [r5, #8]
    82a4:	ebffffb2 	bl	8174 <gpio_outputClr>
    82a8:	e595000c 	ldr	r0, [r5, #12]
    82ac:	ebffffb0 	bl	8174 <gpio_outputClr>
    82b0:	e5950010 	ldr	r0, [r5, #16]
    82b4:	ebffffae 	bl	8174 <gpio_outputClr>
    82b8:	e5950014 	ldr	r0, [r5, #20]
    82bc:	ebffffac 	bl	8174 <gpio_outputClr>
    82c0:	e1a06005 	mov	r6, r5
    82c4:	e1a07005 	mov	r7, r5
    82c8:	e3a04000 	mov	r4, #0
    82cc:	e1a03458 	asr	r3, r8, r4
    82d0:	e3130001 	tst	r3, #1
    82d4:	e2844001 	add	r4, r4, #1
    82d8:	1a00002a 	bne	8388 <lcd_cmd+0x110>
    82dc:	e3540004 	cmp	r4, #4
    82e0:	e2877004 	add	r7, r7, #4
    82e4:	1afffff8 	bne	82cc <lcd_cmd+0x54>
    82e8:	e59f00b0 	ldr	r0, [pc, #176]	; 83a0 <lcd_cmd+0x128>
    82ec:	ebffff5d 	bl	8068 <timer_sleep>
    82f0:	e5950004 	ldr	r0, [r5, #4]
    82f4:	ebffff91 	bl	8140 <gpio_outputSet>
    82f8:	e59f00a0 	ldr	r0, [pc, #160]	; 83a0 <lcd_cmd+0x128>
    82fc:	ebffff59 	bl	8068 <timer_sleep>
    8300:	e5950004 	ldr	r0, [r5, #4]
    8304:	ebffff9a 	bl	8174 <gpio_outputClr>
    8308:	e59f0090 	ldr	r0, [pc, #144]	; 83a0 <lcd_cmd+0x128>
    830c:	ebffff55 	bl	8068 <timer_sleep>
    8310:	e5950008 	ldr	r0, [r5, #8]
    8314:	ebffff96 	bl	8174 <gpio_outputClr>
    8318:	e595000c 	ldr	r0, [r5, #12]
    831c:	ebffff94 	bl	8174 <gpio_outputClr>
    8320:	e5950010 	ldr	r0, [r5, #16]
    8324:	ebffff92 	bl	8174 <gpio_outputClr>
    8328:	e5950014 	ldr	r0, [r5, #20]
    832c:	ebffff90 	bl	8174 <gpio_outputClr>
    8330:	e1a03458 	asr	r3, r8, r4
    8334:	e3130001 	tst	r3, #1
    8338:	e2844001 	add	r4, r4, #1
    833c:	1a00000e 	bne	837c <lcd_cmd+0x104>
    8340:	e3540008 	cmp	r4, #8
    8344:	e2866004 	add	r6, r6, #4
    8348:	1afffff8 	bne	8330 <lcd_cmd+0xb8>
    834c:	e59f004c 	ldr	r0, [pc, #76]	; 83a0 <lcd_cmd+0x128>
    8350:	ebffff44 	bl	8068 <timer_sleep>
    8354:	e5950004 	ldr	r0, [r5, #4]
    8358:	ebffff78 	bl	8140 <gpio_outputSet>
    835c:	e59f003c 	ldr	r0, [pc, #60]	; 83a0 <lcd_cmd+0x128>
    8360:	ebffff40 	bl	8068 <timer_sleep>
    8364:	e5950004 	ldr	r0, [r5, #4]
    8368:	ebffff81 	bl	8174 <gpio_outputClr>
    836c:	e59f002c 	ldr	r0, [pc, #44]	; 83a0 <lcd_cmd+0x128>
    8370:	ebffff3c 	bl	8068 <timer_sleep>
    8374:	e8bd41f0 	pop	{r4, r5, r6, r7, r8, lr}
    8378:	e12fff1e 	bx	lr
    837c:	e5960008 	ldr	r0, [r6, #8]
    8380:	ebffff6e 	bl	8140 <gpio_outputSet>
    8384:	eaffffed 	b	8340 <lcd_cmd+0xc8>
    8388:	e5970008 	ldr	r0, [r7, #8]
    838c:	ebffff6b 	bl	8140 <gpio_outputSet>
    8390:	eaffffd1 	b	82dc <lcd_cmd+0x64>
    8394:	ebffff76 	bl	8174 <gpio_outputClr>
    8398:	eaffffc0 	b	82a0 <lcd_cmd+0x28>
    839c:	000186a0 	andeq	r8, r1, r0, lsr #13
    83a0:	0000c350 	andeq	ip, r0, r0, asr r3

000083a4 <lcd_write>:
    83a4:	e92d4038 	push	{r3, r4, r5, lr}
    83a8:	e1a04001 	mov	r4, r1
    83ac:	e5d11000 	ldrb	r1, [r1]
    83b0:	e3510000 	cmp	r1, #0
    83b4:	e1a05000 	mov	r5, r0
    83b8:	0a000008 	beq	83e0 <lcd_write+0x3c>
    83bc:	e351000a 	cmp	r1, #10
    83c0:	03a010c0 	moveq	r1, #192	; 0xc0
    83c4:	e3a02001 	mov	r2, #1
    83c8:	e1a00005 	mov	r0, r5
    83cc:	03a02000 	moveq	r2, #0
    83d0:	ebffffa8 	bl	8278 <lcd_cmd>
    83d4:	e5f41001 	ldrb	r1, [r4, #1]!
    83d8:	e3510000 	cmp	r1, #0
    83dc:	1afffff6 	bne	83bc <lcd_write+0x18>
    83e0:	e8bd4038 	pop	{r3, r4, r5, lr}
    83e4:	e12fff1e 	bx	lr

000083e8 <lcd_clear>:
    83e8:	e92d4010 	push	{r4, lr}
    83ec:	e3a01033 	mov	r1, #51	; 0x33
    83f0:	e1a04000 	mov	r4, r0
    83f4:	e3a02000 	mov	r2, #0
    83f8:	ebffff9e 	bl	8278 <lcd_cmd>
    83fc:	e1a00004 	mov	r0, r4
    8400:	e3a01032 	mov	r1, #50	; 0x32
    8404:	e3a02000 	mov	r2, #0
    8408:	ebffff9a 	bl	8278 <lcd_cmd>
    840c:	e1a00004 	mov	r0, r4
    8410:	e3a01028 	mov	r1, #40	; 0x28
    8414:	e3a02000 	mov	r2, #0
    8418:	ebffff96 	bl	8278 <lcd_cmd>
    841c:	e1a00004 	mov	r0, r4
    8420:	e3a0100c 	mov	r1, #12
    8424:	e3a02000 	mov	r2, #0
    8428:	ebffff92 	bl	8278 <lcd_cmd>
    842c:	e1a00004 	mov	r0, r4
    8430:	e3a01006 	mov	r1, #6
    8434:	e3a02000 	mov	r2, #0
    8438:	ebffff8e 	bl	8278 <lcd_cmd>
    843c:	e1a00004 	mov	r0, r4
    8440:	e3a01001 	mov	r1, #1
    8444:	e3a02000 	mov	r2, #0
    8448:	e8bd4010 	pop	{r4, lr}
    844c:	eaffff89 	b	8278 <lcd_cmd>

00008450 <lcd_make>:
    8450:	e92d4030 	push	{r4, r5, lr}
    8454:	e593c008 	ldr	ip, [r3, #8]
    8458:	e8934010 	ldm	r3, {r4, lr}
    845c:	e593300c 	ldr	r3, [r3, #12]
    8460:	e24dd01c 	sub	sp, sp, #28
    8464:	e1a05000 	mov	r5, r0
    8468:	e1a00001 	mov	r0, r1
    846c:	e88d4016 	stm	sp, {r1, r2, r4, lr}
    8470:	e58dc010 	str	ip, [sp, #16]
    8474:	e58d3014 	str	r3, [sp, #20]
    8478:	ebffff08 	bl	80a0 <gpio_setOutput>
    847c:	e59d0004 	ldr	r0, [sp, #4]
    8480:	ebffff06 	bl	80a0 <gpio_setOutput>
    8484:	e59d0008 	ldr	r0, [sp, #8]
    8488:	ebffff04 	bl	80a0 <gpio_setOutput>
    848c:	e59d000c 	ldr	r0, [sp, #12]
    8490:	ebffff02 	bl	80a0 <gpio_setOutput>
    8494:	e59d0010 	ldr	r0, [sp, #16]
    8498:	ebffff00 	bl	80a0 <gpio_setOutput>
    849c:	e59d0014 	ldr	r0, [sp, #20]
    84a0:	ebfffefe 	bl	80a0 <gpio_setOutput>
    84a4:	e1a0400d 	mov	r4, sp
    84a8:	e1a0000d 	mov	r0, sp
    84ac:	ebffffcd 	bl	83e8 <lcd_clear>
    84b0:	e8b4000f 	ldm	r4!, {r0, r1, r2, r3}
    84b4:	e1a0c005 	mov	ip, r5
    84b8:	e8ac000f 	stmia	ip!, {r0, r1, r2, r3}
    84bc:	e8940003 	ldm	r4, {r0, r1}
    84c0:	e88c0003 	stm	ip, {r0, r1}
    84c4:	e1a00005 	mov	r0, r5
    84c8:	e28dd01c 	add	sp, sp, #28
    84cc:	e8bd4030 	pop	{r4, r5, lr}
    84d0:	e12fff1e 	bx	lr

Disassembly of section .bss:

000084d4 <lcd>:
	...

Disassembly of section .ARM.attributes:

00000000 <.ARM.attributes>:
   0:	00002a41 	andeq	r2, r0, r1, asr #20
   4:	61656100 	cmnvs	r5, r0, lsl #2
   8:	01006962 	tsteq	r0, r2, ror #18
   c:	00000020 	andeq	r0, r0, r0, lsr #32
  10:	4d524105 	ldfmie	f4, [r2, #-20]	; 0xffffffec
  14:	54347620 	ldrtpl	r7, [r4], #-1568	; 0x620
  18:	08020600 	stmdaeq	r2, {r9, sl}
  1c:	12010901 	andne	r0, r1, #16384	; 0x4000
  20:	15011404 	strne	r1, [r1, #-1028]	; 0x404
  24:	18031701 	stmdane	r3, {r0, r8, r9, sl, ip}
  28:	Address 0x0000000000000028 is out of bounds.


Disassembly of section .comment:

00000000 <.comment>:
   0:	3a434347 	bcc	10d0d24 <lcd+0x10c8850>
   4:	4e472820 	cdpmi	8, 4, cr2, cr7, cr0, {1}
   8:	6f542055 	svcvs	0x00542055
   c:	20736c6f 	rsbscs	r6, r3, pc, ror #24
  10:	20726f66 	rsbscs	r6, r2, r6, ror #30
  14:	204d5241 	subcs	r5, sp, r1, asr #4
  18:	65626d45 	strbvs	r6, [r2, #-3397]!	; 0xd45
  1c:	64656464 	strbtvs	r6, [r5], #-1124	; 0x464
  20:	6f725020 	svcvs	0x00725020
  24:	73736563 	cmnvc	r3, #415236096	; 0x18c00000
  28:	2973726f 	ldmdbcs	r3!, {r0, r1, r2, r3, r5, r6, r9, ip, sp, lr}^
  2c:	372e3420 	strcc	r3, [lr, -r0, lsr #8]!
  30:	3220342e 	eorcc	r3, r0, #771751936	; 0x2e000000
  34:	30343130 	eorscc	r3, r4, r0, lsr r1
  38:	20313034 	eorscs	r3, r1, r4, lsr r0
  3c:	6c657228 	sfmvs	f7, 2, [r5], #-160	; 0xffffff60
  40:	65736165 	ldrbvs	r6, [r3, #-357]!	; 0x165
  44:	415b2029 	cmpmi	fp, r9, lsr #32
  48:	652f4d52 	strvs	r4, [pc, #-3410]!	; fffff2fe <lcd+0xffff6e2a>
  4c:	6465626d 	strbtvs	r6, [r5], #-621	; 0x26d
  50:	2d646564 	cfstr64cs	mvdx6, [r4, #-400]!	; 0xfffffe70
  54:	2d375f34 	ldccs	15, cr5, [r7, #-208]!	; 0xffffff30
  58:	6e617262 	cdpvs	2, 6, cr7, cr1, cr2, {3}
  5c:	72206863 	eorvc	r6, r0, #6488064	; 0x630000
  60:	73697665 	cmnvc	r9, #105906176	; 0x6500000
  64:	206e6f69 	rsbcs	r6, lr, r9, ror #30
  68:	31393032 	teqcc	r9, r2, lsr r0
  6c:	005d3539 	subseq	r3, sp, r9, lsr r5
